target datalayout = "e-m:e-p270:32:32-p271:32:32-p272:64:64-i64:64-i128:128-f80:128-n8:16:32:64-S128"
target triple = "x86_64-pc-linux-gnu"

%class.DragDropToolBar = type <{ %class.QToolBar, %class.QPoint, i32, [4 x i8] }>
%class.QToolBar = type { %class.QWidget }
%class.QWidget = type { %class.QObject, %class.QPaintDevice.base, ptr }
%class.QObject = type { ptr, %class.QScopedPointer }
%class.QScopedPointer = type { ptr }
%class.QPaintDevice.base = type <{ ptr, i16 }>
%class.QPoint = type { i32, i32 }

@_ZTV15DragDropToolBar = external unnamed_addr constant { [57 x ptr], [10 x ptr] }, align 8

; Function Attrs: mustprogress nounwind uwtable
define linkonce_odr void @_ZN6QPointC2Ev(ptr noundef nonnull align 4 dereferenceable(8) %0) unnamed_addr #2 comdat align 2 {
  %2 = alloca ptr, align 8
  store ptr %0, ptr %2, align 8
  %3 = load ptr, ptr %2, align 8
  %4 = getelementptr inbounds %class.QPoint, ptr %3, i32 0, i32 0
  store i32 0, ptr %4, align 4
  %5 = getelementptr inbounds %class.QPoint, ptr %3, i32 0, i32 1
  store i32 0, ptr %5, align 4
  ret void
}

; Function Attrs: mustprogress uwtable
define void @_ZN15DragDropToolBarC2EP7QWidget(ptr noundef nonnull align 8 dereferenceable(52) %0, ptr noundef %1) unnamed_addr #0 align 2 personality ptr @__gxx_personality_v0 {
  %3 = alloca ptr, align 8
  %4 = alloca ptr, align 8
  %5 = alloca ptr, align 8
  %6 = alloca i32, align 4
  store ptr %0, ptr %3, align 8
  store ptr %1, ptr %4, align 8
  %7 = load ptr, ptr %3, align 8
  %8 = load ptr, ptr %4, align 8
  call void @_ZN8QToolBarC2EP7QWidget(ptr noundef nonnull align 8 dereferenceable(40) %7, ptr noundef %8)
  store ptr getelementptr inbounds ({ [57 x ptr], [10 x ptr] }, ptr @_ZTV15DragDropToolBar, i32 0, i32 0, i32 2), ptr %7, align 8
  %9 = getelementptr inbounds i8, ptr %7, i64 16
  store ptr getelementptr inbounds ({ [57 x ptr], [10 x ptr] }, ptr @_ZTV15DragDropToolBar, i32 0, i32 1, i32 2), ptr %9, align 8
  %10 = getelementptr inbounds %class.DragDropToolBar, ptr %7, i32 0, i32 1
  call void @_ZN6QPointC2Ev(ptr noundef nonnull align 4 dereferenceable(8) %10) #12
  invoke void @_ZN15DragDropToolBar12setupToolbarEv(ptr noundef nonnull align 8 dereferenceable(52) %7)
          to label %11 unwind label %12

11:                                               ; preds = %2
  ret void

12:                                               ; preds = %2
  %13 = landingpad { ptr, i32 }
          cleanup
  %14 = extractvalue { ptr, i32 } %13, 0
  store ptr %14, ptr %5, align 8
  %15 = extractvalue { ptr, i32 } %13, 1
  store i32 %15, ptr %6, align 4
  call void @_ZN8QToolBarD2Ev(ptr noundef nonnull align 8 dereferenceable(40) %7) #12
  br label %16

16:                                               ; preds = %12
  %17 = load ptr, ptr %5, align 8
  %18 = load i32, ptr %6, align 4
  %19 = insertvalue { ptr, i32 } poison, ptr %17, 0
  %20 = insertvalue { ptr, i32 } %19, i32 %18, 1
  resume { ptr, i32 } %20
}